target datalayout = "e-m:e-p270:32:32-p271:32:32-p272:64:64-i64:64-i128:128-f80:128-n8:16:32:64-S128"
target triple = "x86_64-pc-linux-gnu"

%struct.H5O_ainfo_t = type { i8, i8, i32, i64, i64, i64, i64 }

@H5O_init_g = external global i8, align 1
@H5_libterm_g = external global i8, align 1

; Function Attrs: nounwind uwtable
define internal i64 @H5O__ainfo_size(ptr noundef %0, i1 noundef zeroext %1, ptr noundef %2) #0 {
  %4 = alloca ptr, align 8
  %5 = alloca i8, align 1
  %6 = alloca ptr, align 8
  %7 = alloca ptr, align 8
  %8 = alloca i64, align 8
  store ptr %0, ptr %4, align 8, !tbaa !3
  %9 = zext i1 %1 to i8
  store i8 %9, ptr %5, align 1, !tbaa !21
  store ptr %2, ptr %6, align 8, !tbaa !20
  call void @llvm.lifetime.start.p0(i64 8, ptr %7) #6
  %10 = load ptr, ptr %6, align 8, !tbaa !20
  store ptr %10, ptr %7, align 8, !tbaa !18
  call void @llvm.lifetime.start.p0(i64 8, ptr %8) #6
  store i64 0, ptr %8, align 8, !tbaa !14
  %11 = load i8, ptr @H5O_init_g, align 1, !tbaa !21, !range !23, !noundef !24
  %12 = trunc i8 %11 to i1
  br i1 %12, label %17, label %13

13:                                               ; preds = %3
  %14 = load i8, ptr @H5_libterm_g, align 1, !tbaa !21, !range !23, !noundef !24
  %15 = trunc i8 %14 to i1
  %16 = xor i1 %15, true
  br label %17

17:                                               ; preds = %13, %3
  %18 = phi i1 [ true, %3 ], [ %16, %13 ]
  %19 = xor i1 %18, true
  %20 = xor i1 %19, true
  %21 = zext i1 %20 to i32
  %22 = sext i32 %21 to i64
  %23 = call i64 @llvm.expect.i64(i64 %22, i64 1)
  %24 = icmp ne i64 %23, 0
  br i1 %24, label %25, label %53

25:                                               ; preds = %17
  %26 = load ptr, ptr %7, align 8, !tbaa !18
  %27 = getelementptr inbounds nuw %struct.H5O_ainfo_t, ptr %26, i32 0, i32 0
  %28 = load i8, ptr %27, align 8, !tbaa !26, !range !23, !noundef !24
  %29 = trunc i8 %28 to i1
  %30 = select i1 %29, i32 2, i32 0
  %31 = add nsw i32 2, %30
  %32 = load ptr, ptr %4, align 8, !tbaa !3
  %33 = call zeroext i8 @H5F_sizeof_addr(ptr noundef %32)
  %34 = zext i8 %33 to i32
  %35 = add nsw i32 %31, %34
  %36 = load ptr, ptr %4, align 8, !tbaa !3
  %37 = call zeroext i8 @H5F_sizeof_addr(ptr noundef %36)
  %38 = zext i8 %37 to i32
  %39 = add nsw i32 %35, %38
  %40 = load ptr, ptr %7, align 8, !tbaa !18
  %41 = getelementptr inbounds nuw %struct.H5O_ainfo_t, ptr %40, i32 0, i32 1
  %42 = load i8, ptr %41, align 1, !tbaa !28, !range !23, !noundef !24
  %43 = trunc i8 %42 to i1
  br i1 %43, label %44, label %48

44:                                               ; preds = %25
  %45 = load ptr, ptr %4, align 8, !tbaa !3
  %46 = call zeroext i8 @H5F_sizeof_addr(ptr noundef %45)
  %47 = zext i8 %46 to i32
  br label %49

48:                                               ; preds = %25
  br label %49

49:                                               ; preds = %48, %44
  %50 = phi i32 [ %47, %44 ], [ 0, %48 ]
  %51 = add nsw i32 %39, %50
  %52 = sext i32 %51 to i64
  store i64 %52, ptr %8, align 8, !tbaa !14
  br label %53

53:                                               ; preds = %49, %17
  %54 = load i64, ptr %8, align 8, !tbaa !14
  call void @llvm.lifetime.end.p0(i64 8, ptr %8) #6
  call void @llvm.lifetime.end.p0(i64 8, ptr %7) #6
  ret i64 %54
}